	.file	"B.c"
	.text
	.globl	C
	.type	C, @function
C:
.LFB6:
	.cfi_startproc
	endbr64
	pushq	%rbp
	.cfi_def_cfa_offset 16
	.cfi_offset 6, -16
	movq	%rsp, %rbp
	.cfi_def_cfa_register 6
	movl	$0, %edi
	call	exit@PLT
	.cfi_endproc
.LFE6:
	.size	C, .-C
	.globl	B
	.type	B, @function
B:
.LFB7:
	.cfi_startproc
	endbr64
	pushq	%rbp
	.cfi_def_cfa_offset 16
	.cfi_offset 6, -16
	movq	%rsp, %rbp
	.cfi_def_cfa_register 6
	subq	$48, %rsp
	movq	%rdi, -40(%rbp)
	leaq	-40(%rbp), %rax
	movq	%rax, -16(%rbp)
	movq	-16(%rbp), %rax
	movq	%rax, %rdi
	call	strlen@PLT
	movq	%rax, %rdx
	movq	-16(%rbp), %rax
	movq	%rax, %rsi
	movl	$1, %edi
	call	write@PLT
	movl	%eax, -20(%rbp)
	leaq	C(%rip), %rax
	movq	%rax, -8(%rbp)
	jmp	*-8(%rbp)
	.cfi_endproc
.LFE7:
	.size	B, .-B
	.ident	"GCC: (Ubuntu 9.3.0-17ubuntu1~20.04) 9.3.0"
	.section	.note.GNU-stack,"",@progbits
	.section	.note.gnu.property,"a"
	.align 8
	.long	 1f - 0f
	.long	 4f - 1f
	.long	 5
0:
	.string	 "GNU"
1:
	.align 8
	.long	 0xc0000002
	.long	 3f - 2f
2:
	.long	 0x3
3:
	.align 8
4:
